(dp1
S'output'
p2
S"<type 'exceptions.AttributeError'> 'DAL' object has no attribute 'post'"
p3
sS'layer'
p4
S'/home/aashay.itsme/Documents/web2py/applications/projectify/controllers/default.py'
p5
sS'code'
p6
S'# -*- coding: utf-8 -*-\n# this file is released under public domain and you can use without limitations\n\n#########################################################################\n## This is a sample controller\n## - index is the default action of any application\n## - user is required for authentication and authorization\n## - download is for downloading files uploaded in the db (does streaming)\n#########################################################################\n\ndef index():\n    """\n    example action using the internationalization operator T and flash\n    rendered by views/default/index.html or views/generic.html\n\n    if you need a simple wiki simply replace the two lines below with:\n    return auth.wiki()\n    """\n    response.flash = T("Welcome to projectify!")\n    return dict(message=T(\'Welcome to web2py!\'))\n@auth.requires_login()\ndef upload():\n\tupform=SQLFORM(db.project)\n#\tform1=SQLFORM(db.cat)\n\tform2=SQLFORM(db.subcat)\n\tif upform.process().accepted:\n\t\t#cur=form1.vars.id\n\t\t#row = db(db.recipe.id==cur).select().first()\n\t        #row.update_record(author_name=auth.user.id)\n\t        #row.update_record(date_made=now)\n\t        response.flash = "1 record inserted"\n\telif upform.errors:\n\t        response.flash = "Errors"\n\telse:\n\t        response.flash = "Please fill the form"\n\t\t\t\t\t\t\t\t\t\n\treturn dict(upform=upform,form2=form2)\ndef projects():\n\tif len(request.args):\n\t\tpage=int(request.args[0])\n\telse: \n\t\tpage=0\n\t        items_per_page=5\n\t        limitby=(page*items_per_page,(page+1)*items_per_page+1)\n\t\trows=db().select(db.project.ALL, limitby=limitby)\n\treturn dict(rows=rows,page=page,items_per_page=items_per_page)\ndef show():\n\trec = db.project(request.args(0,cast=int))\n        i=request.args(0,cast=int)\n        recid=request.args(0,cast=int) or redirect(URL(\'projects\'))\n\tprint i\n        like_str=str(db(db.project.id==request.args[0]).select(db.project.likes))\n        vot=(like_str.split())\n        print vot\n        votes=len(vot)\n        if vot[1]==\'""\':\n            votes=1\n        form = FORM(BUTTON(\'Like / Unlike\',_type=\'submit\'),\n                    _action=URL(\'default\',\'like\',args=recid))\n        db.post.project_id.default=rec.id\n        db.post.project_id.writable=db.post.recipe_id.readable= False\n\tdb.post.author.writable=db.post.author.readable= False\n\t"""form1=SQLFORM(db.post)\n\tif form1.process().accepted:\n\t\tcur=form1.vars.id\n\t\tq=str(db(db.auth_user.id==auth.user.id).select(db.auth_user.first_name))\n\t\ta=q.split()\n\t\trow = db(db.post.id==cur).select().first()\n\t\trow.update_record(author=a[1])\n\t\tresponse.flash = \'your comment is posted\'\n\t\tcomments = db(db.post.recipe_id==rec.id).select()"""\n\treturn dict(rec=rec,recid=recid,form=form, votes=votes)\n\t#return dict(rec=rec,recid=recid,)\ndef like():\n\tfrom re import match\n\trecid=request.args[0]\n\tlike_str=str(db(db.project.id==request.args[0]).select(db.project.likes))\n\tlike_list=[x for x in like_str.split() if match(\'^[0-9]*$\',x)]\n\tif str(auth.user.id) not in like_list:\n\t\tlike_list.append(str(auth.user.id))\n\t\tdb(db.recipe.id==request.args[0]).update(likes=(\' \').join(like_list))\n\telse:\n\t        like_list.remove(str(auth.user.id))\n\t        db(db.recipe.id==request.args[0]).update(likes=(\' \').join(like_list))\n\treturn dict(l=like_list,recid=recid)\n\ndef user():\n    """\n    exposes:\n    http://..../[app]/default/user/login\n    http://..../[app]/default/user/logout\n    http://..../[app]/default/user/register\n    http://..../[app]/default/user/profile\n    http://..../[app]/default/user/retrieve_password\n    http://..../[app]/default/user/change_password\n    http://..../[app]/default/user/bulk_register\n    use @auth.requires_login()\n        @auth.requires_membership(\'group name\')\n        @auth.requires_permission(\'read\',\'table name\',record_id)\n    to decorate functions that need access control\n    also notice there is http://..../[app]/appadmin/manage/auth to allow administrator to manage users\n    """\n    return dict(form=auth())\n\n\n@cache.action()\ndef download():\n    """\n    allows downloading of uploaded files\n    http://..../[app]/default/download/[filename]\n    """\n    return response.download(request, db)\n\n\ndef call():\n    """\n    exposes services. for example:\n    http://..../[app]/default/call/jsonrpc\n    decorate with @services.jsonrpc the functions to expose\n    supports xml, json, xmlrpc, jsonrpc, amfrpc, rss, csv\n    """\n    return service()\n\n\n\nresponse._vars=response._caller(show)\n'
p7
sS'snapshot'
p8
(dp9
sS'traceback'
p10
S'Traceback (most recent call last):\n  File "/home/aashay.itsme/Documents/web2py/gluon/restricted.py", line 227, in restricted\n    exec ccode in environment\n  File "/home/aashay.itsme/Documents/web2py/applications/projectify/controllers/default.py", line 126, in <module>\n  File "/home/aashay.itsme/Documents/web2py/gluon/globals.py", line 417, in <lambda>\n    self._caller = lambda f: f()\n  File "/home/aashay.itsme/Documents/web2py/applications/projectify/controllers/default.py", line 60, in show\n    db.post.project_id.default=rec.id\n  File "/home/aashay.itsme/Documents/web2py/gluon/packages/dal/pydal/base.py", line 921, in __getattr__\n    return BasicStorage.__getattribute__(self, key)\nAttributeError: \'DAL\' object has no attribute \'post\'\n'
p11
s.